; Function Attrs: nounwind uwtable
define i64 @l_Lean_Compiler_LCNF_hashAlts(ptr noundef readonly captures(none) %0) local_unnamed_addr #0 {
lean_nat_lt.exit:
  %1 = getelementptr i8, ptr %0, i64 8
  %.val = load i64, ptr %1, align 8, !tbaa !12
  %.mask = and i64 %.val, 9223372036854775807
  %.not = icmp eq i64 %.mask, 0
  br i1 %.not, label %lean_dec.exit19, label %lean_dec.exit

lean_dec.exit:                                    ; preds = %lean_nat_lt.exit
  %2 = tail call i64 @l_Array_foldlMUnsafe_fold___at_Lean_Compiler_LCNF_hashAlts___spec__1(ptr noundef nonnull %0, i64 noundef 0, i64 noundef %.mask, i64 noundef 7)
  br label %lean_dec.exit19

lean_dec.exit19:                                  ; preds = %lean_nat_lt.exit, %lean_dec.exit
  %.0 = phi i64 [ %2, %lean_dec.exit ], [ 7, %lean_nat_lt.exit ]
  ret i64 %.0
}